target datalayout = "e-m:e-p270:32:32-p271:32:32-p272:64:64-i64:64-i128:128-f80:128-n8:16:32:64-S128"
target triple = "x86_64-unknown-linux-gnu"

%struct.rsa_meth_st = type { %struct.openssl_method_common_st, ptr, ptr, ptr, ptr, ptr, ptr, ptr, ptr, ptr, ptr, ptr, ptr, ptr, i32, ptr, ptr, ptr }
%struct.openssl_method_common_st = type { i32, i8 }
%struct.CRYPTO_EX_DATA_CLASS = type { %struct.CRYPTO_STATIC_MUTEX, ptr, i8 }
%struct.CRYPTO_STATIC_MUTEX = type { %union.pthread_rwlock_t }
%union.pthread_rwlock_t = type { %struct.__pthread_rwlock_arch_t }
%struct.__pthread_rwlock_arch_t = type { i32, i32, i32, i32, i32, i32, i32, i32, i8, [7 x i8], i64, i32 }
%struct.rsa_st = type { ptr, ptr, ptr, ptr, ptr, ptr, ptr, ptr, ptr, ptr, %struct.crypto_ex_data_st, i32, i32, %union.crypto_mutex_st, ptr, ptr, ptr, i32, ptr, ptr }
%struct.crypto_ex_data_st = type { ptr }
%union.crypto_mutex_st = type { double, [48 x i8] }

@g_ex_data_class = internal global %struct.CRYPTO_EX_DATA_CLASS zeroinitializer, align 8

; Function Attrs: nounwind uwtable
define hidden void @RSA_free(ptr noundef %rsa) #0 {
entry:
  %rsa.addr = alloca ptr, align 8
  %u = alloca i32, align 4
  store ptr %rsa, ptr %rsa.addr, align 8
  %0 = load ptr, ptr %rsa.addr, align 8
  %cmp = icmp eq ptr %0, null
  br i1 %cmp, label %if.then, label %if.end

if.then:                                          ; preds = %entry
  br label %return

if.end:                                           ; preds = %entry
  %1 = load ptr, ptr %rsa.addr, align 8
  %references = getelementptr inbounds %struct.rsa_st, ptr %1, i32 0, i32 11
  %call = call i32 @CRYPTO_refcount_dec_and_test_zero(ptr noundef %references)
  %tobool = icmp ne i32 %call, 0
  br i1 %tobool, label %if.end2, label %if.then1

if.then1:                                         ; preds = %if.end
  br label %return

if.end2:                                          ; preds = %if.end
  %2 = load ptr, ptr %rsa.addr, align 8
  %meth = getelementptr inbounds %struct.rsa_st, ptr %2, i32 0, i32 0
  %3 = load ptr, ptr %meth, align 8
  %finish = getelementptr inbounds %struct.rsa_meth_st, ptr %3, i32 0, i32 3
  %4 = load ptr, ptr %finish, align 8
  %tobool3 = icmp ne ptr %4, null
  br i1 %tobool3, label %if.then4, label %if.end8

if.then4:                                         ; preds = %if.end2
  %5 = load ptr, ptr %rsa.addr, align 8
  %meth5 = getelementptr inbounds %struct.rsa_st, ptr %5, i32 0, i32 0
  %6 = load ptr, ptr %meth5, align 8
  %finish6 = getelementptr inbounds %struct.rsa_meth_st, ptr %6, i32 0, i32 3
  %7 = load ptr, ptr %finish6, align 8
  %8 = load ptr, ptr %rsa.addr, align 8
  %call7 = call i32 %7(ptr noundef %8)
  br label %if.end8

if.end8:                                          ; preds = %if.then4, %if.end2
  %9 = load ptr, ptr %rsa.addr, align 8
  %meth9 = getelementptr inbounds %struct.rsa_st, ptr %9, i32 0, i32 0
  %10 = load ptr, ptr %meth9, align 8
  call void @METHOD_unref(ptr noundef %10)
  %11 = load ptr, ptr %rsa.addr, align 8
  %12 = load ptr, ptr %rsa.addr, align 8
  %ex_data = getelementptr inbounds %struct.rsa_st, ptr %12, i32 0, i32 10
  call void @CRYPTO_free_ex_data(ptr noundef @g_ex_data_class, ptr noundef %11, ptr noundef %ex_data)
  %13 = load ptr, ptr %rsa.addr, align 8
  %n = getelementptr inbounds %struct.rsa_st, ptr %13, i32 0, i32 1
  %14 = load ptr, ptr %n, align 8
  call void @BN_clear_free(ptr noundef %14)
  %15 = load ptr, ptr %rsa.addr, align 8
  %e = getelementptr inbounds %struct.rsa_st, ptr %15, i32 0, i32 2
  %16 = load ptr, ptr %e, align 8
  call void @BN_clear_free(ptr noundef %16)
  %17 = load ptr, ptr %rsa.addr, align 8
  %d = getelementptr inbounds %struct.rsa_st, ptr %17, i32 0, i32 3
  %18 = load ptr, ptr %d, align 8
  call void @BN_clear_free(ptr noundef %18)
  %19 = load ptr, ptr %rsa.addr, align 8
  %p = getelementptr inbounds %struct.rsa_st, ptr %19, i32 0, i32 4
  %20 = load ptr, ptr %p, align 8
  call void @BN_clear_free(ptr noundef %20)
  %21 = load ptr, ptr %rsa.addr, align 8
  %q = getelementptr inbounds %struct.rsa_st, ptr %21, i32 0, i32 5
  %22 = load ptr, ptr %q, align 8
  call void @BN_clear_free(ptr noundef %22)
  %23 = load ptr, ptr %rsa.addr, align 8
  %dmp1 = getelementptr inbounds %struct.rsa_st, ptr %23, i32 0, i32 6
  %24 = load ptr, ptr %dmp1, align 8
  call void @BN_clear_free(ptr noundef %24)
  %25 = load ptr, ptr %rsa.addr, align 8
  %dmq1 = getelementptr inbounds %struct.rsa_st, ptr %25, i32 0, i32 7
  %26 = load ptr, ptr %dmq1, align 8
  call void @BN_clear_free(ptr noundef %26)
  %27 = load ptr, ptr %rsa.addr, align 8
  %iqmp = getelementptr inbounds %struct.rsa_st, ptr %27, i32 0, i32 8
  %28 = load ptr, ptr %iqmp, align 8
  call void @BN_clear_free(ptr noundef %28)
  %29 = load ptr, ptr %rsa.addr, align 8
  %mont_n = getelementptr inbounds %struct.rsa_st, ptr %29, i32 0, i32 14
  %30 = load ptr, ptr %mont_n, align 8
  call void @BN_MONT_CTX_free(ptr noundef %30)
  %31 = load ptr, ptr %rsa.addr, align 8
  %mont_p = getelementptr inbounds %struct.rsa_st, ptr %31, i32 0, i32 15
  %32 = load ptr, ptr %mont_p, align 8
  call void @BN_MONT_CTX_free(ptr noundef %32)
  %33 = load ptr, ptr %rsa.addr, align 8
  %mont_q = getelementptr inbounds %struct.rsa_st, ptr %33, i32 0, i32 16
  %34 = load ptr, ptr %mont_q, align 8
  call void @BN_MONT_CTX_free(ptr noundef %34)
  store i32 0, ptr %u, align 4
  br label %for.cond

for.cond:                                         ; preds = %for.inc, %if.end8
  %35 = load i32, ptr %u, align 4
  %36 = load ptr, ptr %rsa.addr, align 8
  %num_blindings = getelementptr inbounds %struct.rsa_st, ptr %36, i32 0, i32 17
  %37 = load i32, ptr %num_blindings, align 8
  %cmp10 = icmp ult i32 %35, %37
  br i1 %cmp10, label %for.body, label %for.end

for.body:                                         ; preds = %for.cond
  %38 = load ptr, ptr %rsa.addr, align 8
  %blindings = getelementptr inbounds %struct.rsa_st, ptr %38, i32 0, i32 18
  %39 = load ptr, ptr %blindings, align 8
  %40 = load i32, ptr %u, align 4
  %idxprom = zext i32 %40 to i64
  %arrayidx = getelementptr inbounds ptr, ptr %39, i64 %idxprom
  %41 = load ptr, ptr %arrayidx, align 8
  call void @BN_BLINDING_free(ptr noundef %41)
  br label %for.inc

for.inc:                                          ; preds = %for.body
  %42 = load i32, ptr %u, align 4
  %inc = add i32 %42, 1
  store i32 %inc, ptr %u, align 4
  br label %for.cond, !llvm.loop !7

for.end:                                          ; preds = %for.cond
  %43 = load ptr, ptr %rsa.addr, align 8
  %blindings11 = getelementptr inbounds %struct.rsa_st, ptr %43, i32 0, i32 18
  %44 = load ptr, ptr %blindings11, align 8
  call void @free(ptr noundef %44) #8
  %45 = load ptr, ptr %rsa.addr, align 8
  %blindings_inuse = getelementptr inbounds %struct.rsa_st, ptr %45, i32 0, i32 19
  %46 = load ptr, ptr %blindings_inuse, align 8
  call void @free(ptr noundef %46) #8
  %47 = load ptr, ptr %rsa.addr, align 8
  %additional_primes = getelementptr inbounds %struct.rsa_st, ptr %47, i32 0, i32 9
  %48 = load ptr, ptr %additional_primes, align 8
  %cmp12 = icmp ne ptr %48, null
  br i1 %cmp12, label %if.then13, label %if.end15

if.then13:                                        ; preds = %for.end
  %49 = load ptr, ptr %rsa.addr, align 8
  %additional_primes14 = getelementptr inbounds %struct.rsa_st, ptr %49, i32 0, i32 9
  %50 = load ptr, ptr %additional_primes14, align 8
  call void @sk_pop_free(ptr noundef %50, ptr noundef @RSA_additional_prime_free)
  br label %if.end15

if.end15:                                         ; preds = %if.then13, %for.end
  %51 = load ptr, ptr %rsa.addr, align 8
  %lock = getelementptr inbounds %struct.rsa_st, ptr %51, i32 0, i32 13
  call void @CRYPTO_MUTEX_cleanup(ptr noundef %lock)
  %52 = load ptr, ptr %rsa.addr, align 8
  call void @free(ptr noundef %52) #8
  br label %return

return:                                           ; preds = %if.end15, %if.then1, %if.then
  ret void
}