; Function Attrs: nounwind uwtable
define hidden void @RSA_free(ptr noundef %rsa) local_unnamed_addr #0 {
entry:
  %cmp = icmp eq ptr %rsa, null
  br i1 %cmp, label %return, label %if.end

if.end:                                           ; preds = %entry
  %references = getelementptr inbounds nuw i8, ptr %rsa, i64 88
  %call = tail call i32 @CRYPTO_refcount_dec_and_test_zero(ptr noundef nonnull %references) #9
  %tobool.not = icmp eq i32 %call, 0
  br i1 %tobool.not, label %return, label %if.end2

if.end2:                                          ; preds = %if.end
  %0 = load ptr, ptr %rsa, align 8
  %finish = getelementptr inbounds nuw i8, ptr %0, i64 24
  %1 = load ptr, ptr %finish, align 8
  %tobool3.not = icmp eq ptr %1, null
  br i1 %tobool3.not, label %if.end8, label %if.then4

if.then4:                                         ; preds = %if.end2
  %call7 = tail call i32 %1(ptr noundef nonnull %rsa) #9
  %.pre = load ptr, ptr %rsa, align 8
  br label %if.end8

if.end8:                                          ; preds = %if.then4, %if.end2
  %2 = phi ptr [ %.pre, %if.then4 ], [ %0, %if.end2 ]
  tail call void @METHOD_unref(ptr noundef %2) #9
  %ex_data = getelementptr inbounds nuw i8, ptr %rsa, i64 80
  tail call void @CRYPTO_free_ex_data(ptr noundef nonnull @g_ex_data_class, ptr noundef nonnull %rsa, ptr noundef nonnull %ex_data) #9
  %n = getelementptr inbounds nuw i8, ptr %rsa, i64 8
  %3 = load ptr, ptr %n, align 8
  tail call void @BN_clear_free(ptr noundef %3) #9
  %e = getelementptr inbounds nuw i8, ptr %rsa, i64 16
  %4 = load ptr, ptr %e, align 8
  tail call void @BN_clear_free(ptr noundef %4) #9
  %d = getelementptr inbounds nuw i8, ptr %rsa, i64 24
  %5 = load ptr, ptr %d, align 8
  tail call void @BN_clear_free(ptr noundef %5) #9
  %p = getelementptr inbounds nuw i8, ptr %rsa, i64 32
  %6 = load ptr, ptr %p, align 8
  tail call void @BN_clear_free(ptr noundef %6) #9
  %q = getelementptr inbounds nuw i8, ptr %rsa, i64 40
  %7 = load ptr, ptr %q, align 8
  tail call void @BN_clear_free(ptr noundef %7) #9
  %dmp1 = getelementptr inbounds nuw i8, ptr %rsa, i64 48
  %8 = load ptr, ptr %dmp1, align 8
  tail call void @BN_clear_free(ptr noundef %8) #9
  %dmq1 = getelementptr inbounds nuw i8, ptr %rsa, i64 56
  %9 = load ptr, ptr %dmq1, align 8
  tail call void @BN_clear_free(ptr noundef %9) #9
  %iqmp = getelementptr inbounds nuw i8, ptr %rsa, i64 64
  %10 = load ptr, ptr %iqmp, align 8
  tail call void @BN_clear_free(ptr noundef %10) #9
  %mont_n = getelementptr inbounds nuw i8, ptr %rsa, i64 152
  %11 = load ptr, ptr %mont_n, align 8
  tail call void @BN_MONT_CTX_free(ptr noundef %11) #9
  %mont_p = getelementptr inbounds nuw i8, ptr %rsa, i64 160
  %12 = load ptr, ptr %mont_p, align 8
  tail call void @BN_MONT_CTX_free(ptr noundef %12) #9
  %mont_q = getelementptr inbounds nuw i8, ptr %rsa, i64 168
  %13 = load ptr, ptr %mont_q, align 8
  tail call void @BN_MONT_CTX_free(ptr noundef %13) #9
  %num_blindings = getelementptr inbounds nuw i8, ptr %rsa, i64 176
  %14 = load i32, ptr %num_blindings, align 8
  %cmp1030.not = icmp eq i32 %14, 0
  br i1 %cmp1030.not, label %for.end, label %for.body.lr.ph

for.body.lr.ph:                                   ; preds = %if.end8
  %blindings = getelementptr inbounds nuw i8, ptr %rsa, i64 184
  br label %for.body

for.body:                                         ; preds = %for.body.lr.ph, %for.body
  %indvars.iv = phi i64 [ 0, %for.body.lr.ph ], [ %indvars.iv.next, %for.body ]
  %15 = load ptr, ptr %blindings, align 8
  %arrayidx = getelementptr inbounds nuw ptr, ptr %15, i64 %indvars.iv
  %16 = load ptr, ptr %arrayidx, align 8
  tail call void @BN_BLINDING_free(ptr noundef %16) #9
  %indvars.iv.next = add nuw nsw i64 %indvars.iv, 1
  %17 = load i32, ptr %num_blindings, align 8
  %18 = zext i32 %17 to i64
  %cmp10 = icmp samesign ult i64 %indvars.iv.next, %18
  br i1 %cmp10, label %for.body, label %for.end, !llvm.loop !7

for.end:                                          ; preds = %for.body, %if.end8
  %blindings11 = getelementptr inbounds nuw i8, ptr %rsa, i64 184
  %19 = load ptr, ptr %blindings11, align 8
  tail call void @free(ptr noundef %19) #9
  %blindings_inuse = getelementptr inbounds nuw i8, ptr %rsa, i64 192
  %20 = load ptr, ptr %blindings_inuse, align 8
  tail call void @free(ptr noundef %20) #9
  %additional_primes = getelementptr inbounds nuw i8, ptr %rsa, i64 72
  %21 = load ptr, ptr %additional_primes, align 8
  %cmp12.not = icmp eq ptr %21, null
  br i1 %cmp12.not, label %if.end15, label %if.then13

if.then13:                                        ; preds = %for.end
  tail call void @sk_pop_free(ptr noundef nonnull %21, ptr noundef nonnull @RSA_additional_prime_free) #9
  br label %if.end15

if.end15:                                         ; preds = %if.then13, %for.end
  %lock = getelementptr inbounds nuw i8, ptr %rsa, i64 96
  tail call void @CRYPTO_MUTEX_cleanup(ptr noundef nonnull %lock) #9
  tail call void @free(ptr noundef nonnull %rsa) #9
  br label %return

return:                                           ; preds = %if.end, %entry, %if.end15
  ret void
}